target datalayout = "e-m:e-p270:32:32-p271:32:32-p272:64:64-i64:64-i128:128-f80:128-n8:16:32:64-S128"
target triple = "x86_64-pc-linux-gnu"

%struct.SDL_GUID = type { [16 x i8] }

@s_pDefaultMapping = internal global ptr null, align 8
@.str.449 = private unnamed_addr constant [27 x i8] c"Xbox 360 Wireless Receiver\00", align 1

; Function Attrs: nounwind uwtable
define internal ptr @SDL_PrivateGetGamepadMappingForNameAndGUID(ptr noundef %0, i64 %1, i64 %2) #0 {
  %4 = alloca %struct.SDL_GUID, align 1
  %5 = alloca ptr, align 8
  %6 = alloca ptr, align 8
  %7 = alloca i8, align 1
  %8 = getelementptr inbounds nuw { i64, i64 }, ptr %4, i32 0, i32 0
  store i64 %1, ptr %8, align 1
  %9 = getelementptr inbounds nuw { i64, i64 }, ptr %4, i32 0, i32 1
  store i64 %2, ptr %9, align 1
  store ptr %0, ptr %5, align 8
  call void @llvm.lifetime.start.p0(i64 8, ptr %6) #8
  call void @SDL_AssertJoysticksLocked()
  %10 = getelementptr inbounds nuw { i64, i64 }, ptr %4, i32 0, i32 0
  %11 = load i64, ptr %10, align 1
  %12 = getelementptr inbounds nuw { i64, i64 }, ptr %4, i32 0, i32 1
  %13 = load i64, ptr %12, align 1
  %14 = call ptr @SDL_PrivateGetGamepadMappingForGUID(i64 %11, i64 %13, i1 noundef zeroext false)
  store ptr %14, ptr %6, align 8
  %15 = load ptr, ptr %6, align 8
  %16 = icmp ne ptr %15, null
  br i1 %16, label %31, label %17

17:                                               ; preds = %3
  %18 = load ptr, ptr %5, align 8
  %19 = icmp ne ptr %18, null
  br i1 %19, label %20, label %31

20:                                               ; preds = %17
  %21 = load ptr, ptr %5, align 8
  %22 = call ptr @SDL_strstr_REAL(ptr noundef %21, ptr noundef @.str.449)
  %23 = icmp ne ptr %22, null
  br i1 %23, label %24, label %30

24:                                               ; preds = %20
  call void @llvm.lifetime.start.p0(i64 1, ptr %7) #8
  %25 = getelementptr inbounds nuw { i64, i64 }, ptr %4, i32 0, i32 0
  %26 = load i64, ptr %25, align 1
  %27 = getelementptr inbounds nuw { i64, i64 }, ptr %4, i32 0, i32 1
  %28 = load i64, ptr %27, align 1
  %29 = call ptr @SDL_PrivateAddMappingForGUID(i64 %26, i64 %28, ptr noundef @.str.450, ptr noundef %7, i32 noundef 0)
  store ptr %29, ptr %6, align 8
  call void @llvm.lifetime.end.p0(i64 1, ptr %7) #8
  br label %30

30:                                               ; preds = %24, %20
  br label %31

31:                                               ; preds = %30, %17, %3
  %32 = load ptr, ptr %6, align 8
  call void @llvm.lifetime.end.p0(i64 8, ptr %6) #8
  ret ptr %32
}

; Function Attrs: nounwind uwtable
define hidden zeroext i1 @SDL_IsGamepadNameAndGUID(ptr noundef %0, i64 %1, i64 %2) #0 {
  %4 = alloca %struct.SDL_GUID, align 1
  %5 = alloca ptr, align 8
  %6 = alloca i8, align 1
  %7 = getelementptr inbounds nuw { i64, i64 }, ptr %4, i32 0, i32 0
  store i64 %1, ptr %7, align 1
  %8 = getelementptr inbounds nuw { i64, i64 }, ptr %4, i32 0, i32 1
  store i64 %2, ptr %8, align 1
  store ptr %0, ptr %5, align 8
  call void @llvm.lifetime.start.p0(i64 1, ptr %6) #8
  call void @SDL_LockJoysticks_REAL()
  %9 = load ptr, ptr @s_pDefaultMapping, align 8
  %10 = icmp ne ptr %9, null
  br i1 %10, label %19, label %11

11:                                               ; preds = %3
  %12 = load ptr, ptr %5, align 8
  %13 = getelementptr inbounds nuw { i64, i64 }, ptr %4, i32 0, i32 0
  %14 = load i64, ptr %13, align 1
  %15 = getelementptr inbounds nuw { i64, i64 }, ptr %4, i32 0, i32 1
  %16 = load i64, ptr %15, align 1
  %17 = call ptr @SDL_PrivateGetGamepadMappingForNameAndGUID(ptr noundef %12, i64 %14, i64 %16)
  %18 = icmp ne ptr %17, null
  br i1 %18, label %19, label %20

19:                                               ; preds = %11, %3
  store i8 1, ptr %6, align 1
  br label %21

20:                                               ; preds = %11
  store i8 0, ptr %6, align 1
  br label %21

21:                                               ; preds = %20, %19
  call void @SDL_UnlockJoysticks_REAL()
  %22 = load i8, ptr %6, align 1, !range !3, !noundef !4
  %23 = trunc i8 %22 to i1
  call void @llvm.lifetime.end.p0(i64 1, ptr %6) #8
  ret i1 %23
}