; Function Attrs: nounwind uwtable
define hidden zeroext i1 @SDL_IsGamepadNameAndGUID(ptr noundef %0, i64 %1, i64 %2) local_unnamed_addr #0 {
  %4 = alloca i8, align 1
  tail call void @SDL_LockJoysticks_REAL() #10
  %5 = load ptr, ptr @s_pDefaultMapping, align 8
  %.not = icmp eq ptr %5, null
  br i1 %.not, label %6, label %14

6:                                                ; preds = %3
  tail call void @SDL_AssertJoysticksLocked() #10
  %7 = tail call fastcc ptr @SDL_PrivateGetGamepadMappingForGUID(i64 %1, i64 %2, i1 noundef zeroext false)
  %8 = icmp eq ptr %7, null
  %9 = icmp ne ptr %0, null
  %or.cond.i = and i1 %9, %8
  br i1 %or.cond.i, label %10, label %SDL_PrivateGetGamepadMappingForNameAndGUID.exit

10:                                               ; preds = %6
  %11 = tail call ptr @SDL_strstr_REAL(ptr noundef nonnull %0, ptr noundef nonnull @.str.449) #10
  %.not.i = icmp eq ptr %11, null
  br i1 %.not.i, label %SDL_PrivateGetGamepadMappingForNameAndGUID.exit, label %12

12:                                               ; preds = %10
  call void @llvm.lifetime.start.p0(i64 1, ptr nonnull %4) #10
  %13 = call fastcc ptr @SDL_PrivateAddMappingForGUID(i64 %1, i64 %2, ptr noundef nonnull @.str.450, ptr noundef nonnull %4, i32 noundef 0)
  call void @llvm.lifetime.end.p0(i64 1, ptr nonnull %4) #10
  br label %SDL_PrivateGetGamepadMappingForNameAndGUID.exit

SDL_PrivateGetGamepadMappingForNameAndGUID.exit:  ; preds = %6, %10, %12
  %.0.i = phi ptr [ %13, %12 ], [ null, %10 ], [ %7, %6 ]
  %.not1 = icmp ne ptr %.0.i, null
  br label %14

14:                                               ; preds = %SDL_PrivateGetGamepadMappingForNameAndGUID.exit, %3
  %.0 = phi i1 [ true, %3 ], [ %.not1, %SDL_PrivateGetGamepadMappingForNameAndGUID.exit ]
  call void @SDL_UnlockJoysticks_REAL() #10
  ret i1 %.0
}